target datalayout = "e-m:e-p270:32:32-p271:32:32-p272:64:64-i64:64-i128:128-f80:128-n8:16:32:64-S128"
target triple = "x86_64-pc-linux-gnu"

@H5SL_init_g = global i8 0, align 1
@H5_libterm_g = external global i8, align 1
@H5SL_fac_g = internal global ptr null, align 8
@H5SL_fac_nalloc_g = internal global i64 0, align 8
@H5SL_fac_nused_g = internal global i64 0, align 8

; Function Attrs: nounwind uwtable
define i32 @H5SL_term_package() #0 {
  %1 = alloca i32, align 4
  %2 = alloca i64, align 8
  %3 = alloca i32, align 4
  call void @llvm.lifetime.start.p0(i64 4, ptr %1) #8
  store i32 0, ptr %1, align 4, !tbaa !16
  %4 = load i8, ptr @H5SL_init_g, align 1, !tbaa !3, !range !7, !noundef !8
  %5 = trunc i8 %4 to i1
  br i1 %5, label %10, label %6

6:                                                ; preds = %0
  %7 = load i8, ptr @H5_libterm_g, align 1, !tbaa !3, !range !7, !noundef !8
  %8 = trunc i8 %7 to i1
  %9 = xor i1 %8, true
  br label %10

10:                                               ; preds = %6, %0
  %11 = phi i1 [ true, %0 ], [ %9, %6 ]
  %12 = xor i1 %11, true
  %13 = xor i1 %12, true
  %14 = zext i1 %13 to i32
  %15 = sext i32 %14 to i64
  %16 = call i64 @llvm.expect.i64(i64 %15, i64 1)
  %17 = icmp ne i64 %16, 0
  br i1 %17, label %18, label %55

18:                                               ; preds = %10
  %19 = load i8, ptr @H5SL_init_g, align 1, !tbaa !3, !range !7, !noundef !8
  %20 = trunc i8 %19 to i1
  br i1 %20, label %21, label %54

21:                                               ; preds = %18
  %22 = load i64, ptr @H5SL_fac_nused_g, align 8, !tbaa !12
  %23 = icmp ugt i64 %22, 0
  br i1 %23, label %24, label %41

24:                                               ; preds = %21
  call void @llvm.lifetime.start.p0(i64 8, ptr %2) #8
  call void @llvm.lifetime.start.p0(i64 4, ptr %3) #8
  store i64 0, ptr %2, align 8, !tbaa !12
  br label %25

25:                                               ; preds = %35, %24
  %26 = load i64, ptr %2, align 8, !tbaa !12
  %27 = load i64, ptr @H5SL_fac_nused_g, align 8, !tbaa !12
  %28 = icmp ult i64 %26, %27
  br i1 %28, label %29, label %38

29:                                               ; preds = %25
  %30 = load ptr, ptr @H5SL_fac_g, align 8, !tbaa !9
  %31 = load i64, ptr %2, align 8, !tbaa !12
  %32 = getelementptr inbounds nuw ptr, ptr %30, i64 %31
  %33 = load ptr, ptr %32, align 8, !tbaa !14
  %34 = call i32 @H5FL_fac_term(ptr noundef %33)
  store i32 %34, ptr %3, align 4, !tbaa !16
  br label %35

35:                                               ; preds = %29
  %36 = load i64, ptr %2, align 8, !tbaa !12
  %37 = add i64 %36, 1
  store i64 %37, ptr %2, align 8, !tbaa !12
  br label %25, !llvm.loop !18

38:                                               ; preds = %25
  store i64 0, ptr @H5SL_fac_nused_g, align 8, !tbaa !12
  %39 = load i32, ptr %1, align 4, !tbaa !16
  %40 = add nsw i32 %39, 1
  store i32 %40, ptr %1, align 4, !tbaa !16
  call void @llvm.lifetime.end.p0(i64 4, ptr %3) #8
  call void @llvm.lifetime.end.p0(i64 8, ptr %2) #8
  br label %41

41:                                               ; preds = %38, %21
  %42 = load ptr, ptr @H5SL_fac_g, align 8, !tbaa !9
  %43 = icmp ne ptr %42, null
  br i1 %43, label %44, label %49

44:                                               ; preds = %41
  %45 = load ptr, ptr @H5SL_fac_g, align 8, !tbaa !9
  %46 = call ptr @H5MM_xfree(ptr noundef %45)
  store ptr %46, ptr @H5SL_fac_g, align 8, !tbaa !9
  store i64 0, ptr @H5SL_fac_nalloc_g, align 8, !tbaa !12
  %47 = load i32, ptr %1, align 4, !tbaa !16
  %48 = add nsw i32 %47, 1
  store i32 %48, ptr %1, align 4, !tbaa !16
  br label %49

49:                                               ; preds = %44, %41
  %50 = load i32, ptr %1, align 4, !tbaa !16
  %51 = icmp eq i32 0, %50
  br i1 %51, label %52, label %53

52:                                               ; preds = %49
  store i8 0, ptr @H5SL_init_g, align 1, !tbaa !3
  br label %53

53:                                               ; preds = %52, %49
  br label %54

54:                                               ; preds = %53, %18
  br label %55

55:                                               ; preds = %54, %10
  %56 = load i32, ptr %1, align 4, !tbaa !16
  call void @llvm.lifetime.end.p0(i64 4, ptr %1) #8
  ret i32 %56
}