; Function Attrs: nounwind uwtable
define range(i32 0, 3) i32 @H5SL_term_package() local_unnamed_addr #0 {
  %1 = load i8, ptr @H5SL_init_g, align 1, !tbaa !3, !range !7, !noundef !8
  %2 = trunc nuw i8 %1 to i1
  br i1 %2, label %3, label %17, !prof !17

3:                                                ; preds = %0
  %4 = load i64, ptr @H5SL_fac_nused_g, align 8, !tbaa !13
  %.not = icmp eq i64 %4, 0
  br i1 %.not, label %.thread15, label %.lr.ph

.lr.ph:                                           ; preds = %3, %.lr.ph
  %.0713 = phi i64 [ %9, %.lr.ph ], [ 0, %3 ]
  %5 = load ptr, ptr @H5SL_fac_g, align 8, !tbaa !10
  %6 = getelementptr inbounds nuw ptr, ptr %5, i64 %.0713
  %7 = load ptr, ptr %6, align 8, !tbaa !15
  %8 = tail call i32 @H5FL_fac_term(ptr noundef %7) #9
  %9 = add nuw i64 %.0713, 1
  %10 = load i64, ptr @H5SL_fac_nused_g, align 8, !tbaa !13
  %11 = icmp ult i64 %9, %10
  br i1 %11, label %.lr.ph, label %12, !llvm.loop !18

12:                                               ; preds = %.lr.ph
  store i64 0, ptr @H5SL_fac_nused_g, align 8, !tbaa !13
  %13 = load ptr, ptr @H5SL_fac_g, align 8, !tbaa !10
  %.not9 = icmp eq ptr %13, null
  br i1 %.not9, label %17, label %.thread

.thread15:                                        ; preds = %3
  %14 = load ptr, ptr @H5SL_fac_g, align 8, !tbaa !10
  %.not917 = icmp eq ptr %14, null
  br i1 %.not917, label %.thread19, label %.thread

.thread:                                          ; preds = %.thread15, %12
  %15 = phi ptr [ %14, %.thread15 ], [ %13, %12 ]
  %.118 = phi i32 [ 1, %.thread15 ], [ 2, %12 ]
  %16 = tail call ptr @H5MM_xfree(ptr noundef nonnull %15) #9
  store ptr %16, ptr @H5SL_fac_g, align 8, !tbaa !10
  store i64 0, ptr @H5SL_fac_nalloc_g, align 8, !tbaa !13
  br label %17

.thread19:                                        ; preds = %.thread15
  store i8 0, ptr @H5SL_init_g, align 1, !tbaa !3
  br label %17

17:                                               ; preds = %12, %.thread, %0, %.thread19
  %.0 = phi i32 [ 0, %.thread19 ], [ 0, %0 ], [ %.118, %.thread ], [ 1, %12 ]
  ret i32 %.0
}